target datalayout = "e-m:e-p270:32:32-p271:32:32-p272:64:64-i64:64-i128:128-f80:128-n8:16:32:64-S128"
target triple = "x86_64-pc-linux-gnu"

%"class.sat::model_converter" = type { %class.vector, i32, %class.svector, ptr, %class.svector.1 }
%class.vector = type { ptr }
%class.svector = type { %class.vector.0 }
%class.vector.0 = type { ptr }
%class.svector.1 = type { %class.vector.2 }
%class.vector.2 = type { ptr }
%class.svector.26 = type { %class.vector.27 }
%class.vector.27 = type { ptr }
%"class.sat::model_converter::entry" = type { i32, i32, %class.svector.26, %class.svector.26, %class.ref_vector_core }
%class.ref_vector_core = type { %class.ptr_vector.50 }
%class.ptr_vector.50 = type { %class.vector.51 }
%class.vector.51 = type { ptr }

@.str.2 = private unnamed_addr constant [115 x i8] c"generated/home/dtcxzyw/WorkSpace/Projects/compilers/llvm-opt-benchmark/bench/z3/z3/src/sat/sat_model_converter.cpp\00", align 1
@.str.23 = private unnamed_addr constant [32 x i8] c"Failed to verify: this != &src\0A\00", align 1

; Function Attrs: mustprogress uwtable
define linkonce_odr hidden void @_ZN6vectorIN3sat7literalELb0EjE11free_memoryEv(ptr noundef nonnull align 8 dereferenceable(8) %0) #4 comdat align 2 {
  %2 = alloca ptr, align 8
  store ptr %0, ptr %2, align 8, !tbaa !192
  %3 = load ptr, ptr %2, align 8
  %4 = getelementptr inbounds nuw %class.vector.27, ptr %3, i32 0, i32 0
  %5 = load ptr, ptr %4, align 8, !tbaa !194
  %6 = getelementptr inbounds i32, ptr %5, i64 -2
  call void @_ZN6memory10deallocateEPv(ptr noundef %6)
  ret void
}

; Function Attrs: mustprogress uwtable
define linkonce_odr hidden void @_ZN6vectorIN3sat7literalELb0EjE7destroyEv(ptr noundef nonnull align 8 dereferenceable(8) %0) #4 comdat align 2 {
  %2 = alloca ptr, align 8
  store ptr %0, ptr %2, align 8, !tbaa !192
  %3 = load ptr, ptr %2, align 8
  %4 = getelementptr inbounds nuw %class.vector.27, ptr %3, i32 0, i32 0
  %5 = load ptr, ptr %4, align 8, !tbaa !194
  %6 = icmp ne ptr %5, null
  br i1 %6, label %7, label %8

7:                                                ; preds = %1
  call void @_ZN6vectorIN3sat7literalELb0EjE11free_memoryEv(ptr noundef nonnull align 8 dereferenceable(8) %3)
  br label %8

8:                                                ; preds = %7, %1
  ret void
}

; Function Attrs: mustprogress nounwind uwtable
define linkonce_odr hidden void @_ZN6vectorIN3sat7literalELb0EjED2Ev(ptr noundef nonnull align 8 dereferenceable(8) %0) unnamed_addr #6 comdat align 2 personality ptr @__gxx_personality_v0 {
  %2 = alloca ptr, align 8
  store ptr %0, ptr %2, align 8, !tbaa !192
  %3 = load ptr, ptr %2, align 8
  invoke void @_ZN6vectorIN3sat7literalELb0EjE7destroyEv(ptr noundef nonnull align 8 dereferenceable(8) %3)
          to label %4 unwind label %5

4:                                                ; preds = %1
  ret void

5:                                                ; preds = %1
  %6 = landingpad { ptr, i32 }
          catch ptr null
  %7 = extractvalue { ptr, i32 } %6, 0
  call void @__clang_call_terminate(ptr %7) #19
  unreachable
}

; Function Attrs: inlinehint mustprogress nounwind uwtable
define linkonce_odr hidden void @_ZN3sat15model_converter5entryD2Ev(ptr noundef nonnull align 8 dereferenceable(32) %0) unnamed_addr #9 comdat align 2 {
  %2 = alloca ptr, align 8
  store ptr %0, ptr %2, align 8, !tbaa !200
  %3 = load ptr, ptr %2, align 8
  %4 = getelementptr inbounds nuw %"class.sat::model_converter::entry", ptr %3, i32 0, i32 4
  call void @_ZN15ref_vector_coreIN3sat15model_converter10elim_stackE21ref_unmanaged_wrapperIS2_EED2Ev(ptr noundef nonnull align 8 dereferenceable(8) %4) #3
  %5 = getelementptr inbounds nuw %"class.sat::model_converter::entry", ptr %3, i32 0, i32 3
  call void @_ZN6vectorIN3sat7literalELb0EjED2Ev(ptr noundef nonnull align 8 dereferenceable(8) %5) #3
  %6 = getelementptr inbounds nuw %"class.sat::model_converter::entry", ptr %3, i32 0, i32 2
  call void @_ZN6vectorIN3sat7literalELb0EjED2Ev(ptr noundef nonnull align 8 dereferenceable(8) %6) #3
  ret void
}

; Function Attrs: inlinehint mustprogress nounwind uwtable
define linkonce_odr hidden void @_ZSt10destroy_atIN3sat15model_converter5entryEEvPT_(ptr noundef %0) #9 comdat {
  %2 = alloca ptr, align 8
  store ptr %0, ptr %2, align 8, !tbaa !200
  %3 = load ptr, ptr %2, align 8, !tbaa !200
  call void @_ZN3sat15model_converter5entryD2Ev(ptr noundef nonnull align 8 dereferenceable(32) %3) #3
  ret void
}

; Function Attrs: inlinehint mustprogress uwtable
define linkonce_odr hidden void @_ZSt8_DestroyIN3sat15model_converter5entryEEvPT_(ptr noundef %0) #5 comdat {
  %2 = alloca ptr, align 8
  store ptr %0, ptr %2, align 8, !tbaa !200
  %3 = load ptr, ptr %2, align 8, !tbaa !200
  call void @_ZSt10destroy_atIN3sat15model_converter5entryEEvPT_(ptr noundef %3)
  ret void
}

; Function Attrs: mustprogress uwtable
define linkonce_odr hidden noundef ptr @_ZNSt14_Destroy_n_auxILb0EE11__destroy_nIPN3sat15model_converter5entryEjEET_S6_T0_(ptr noundef %0, i32 noundef %1) #4 comdat align 2 {
  %3 = alloca ptr, align 8
  %4 = alloca i32, align 4
  store ptr %0, ptr %3, align 8, !tbaa !200
  store i32 %1, ptr %4, align 4, !tbaa !20
  br label %5

5:                                                ; preds = %10, %2
  %6 = load i32, ptr %4, align 4, !tbaa !20
  %7 = icmp ugt i32 %6, 0
  br i1 %7, label %8, label %15

8:                                                ; preds = %5
  %9 = load ptr, ptr %3, align 8, !tbaa !200
  call void @_ZSt8_DestroyIN3sat15model_converter5entryEEvPT_(ptr noundef %9)
  br label %10

10:                                               ; preds = %8
  %11 = load ptr, ptr %3, align 8, !tbaa !200
  %12 = getelementptr inbounds nuw %"class.sat::model_converter::entry", ptr %11, i32 1
  store ptr %12, ptr %3, align 8, !tbaa !200
  %13 = load i32, ptr %4, align 4, !tbaa !20
  %14 = add i32 %13, -1
  store i32 %14, ptr %4, align 4, !tbaa !20
  br label %5, !llvm.loop !326

15:                                               ; preds = %5
  %16 = load ptr, ptr %3, align 8, !tbaa !200
  ret ptr %16
}

; Function Attrs: inlinehint mustprogress uwtable
define linkonce_odr hidden noundef ptr @_ZSt10_Destroy_nIPN3sat15model_converter5entryEjET_S4_T0_(ptr noundef %0, i32 noundef %1) #5 comdat {
  %3 = alloca ptr, align 8
  %4 = alloca i32, align 4
  store ptr %0, ptr %3, align 8, !tbaa !200
  store i32 %1, ptr %4, align 4, !tbaa !20
  %5 = load ptr, ptr %3, align 8, !tbaa !200
  %6 = load i32, ptr %4, align 4, !tbaa !20
  %7 = call noundef ptr @_ZNSt14_Destroy_n_auxILb0EE11__destroy_nIPN3sat15model_converter5entryEjEET_S6_T0_(ptr noundef %5, i32 noundef %6)
  ret ptr %7
}

; Function Attrs: inlinehint mustprogress uwtable
define linkonce_odr hidden noundef ptr @_ZSt9destroy_nIPN3sat15model_converter5entryEjET_S4_T0_(ptr noundef %0, i32 noundef %1) #5 comdat {
  %3 = alloca ptr, align 8
  %4 = alloca i32, align 4
  store ptr %0, ptr %3, align 8, !tbaa !200
  store i32 %1, ptr %4, align 4, !tbaa !20
  %5 = load ptr, ptr %3, align 8, !tbaa !200
  %6 = load i32, ptr %4, align 4, !tbaa !20
  %7 = call noundef ptr @_ZSt10_Destroy_nIPN3sat15model_converter5entryEjET_S4_T0_(ptr noundef %5, i32 noundef %6)
  ret ptr %7
}

; Function Attrs: mustprogress uwtable
define linkonce_odr hidden void @_ZN6vectorIN3sat15model_converter5entryELb1EjE16destroy_elementsEv(ptr noundef nonnull align 8 dereferenceable(8) %0) #4 comdat align 2 {
  %2 = alloca ptr, align 8
  store ptr %0, ptr %2, align 8, !tbaa !204
  %3 = load ptr, ptr %2, align 8
  %4 = getelementptr inbounds nuw %class.vector, ptr %3, i32 0, i32 0
  %5 = load ptr, ptr %4, align 8, !tbaa !206
  %6 = call noundef i32 @_ZNK6vectorIN3sat15model_converter5entryELb1EjE4sizeEv(ptr noundef nonnull align 8 dereferenceable(8) %3)
  %7 = call noundef ptr @_ZSt9destroy_nIPN3sat15model_converter5entryEjET_S4_T0_(ptr noundef %5, i32 noundef %6)
  ret void
}

; Function Attrs: mustprogress uwtable
define linkonce_odr hidden noundef nonnull align 8 dereferenceable(8) ptr @_ZN6vectorIN3sat15model_converter5entryELb1EjE9push_backERKS2_(ptr noundef nonnull align 8 dereferenceable(8) %0, ptr noundef nonnull align 8 dereferenceable(32) %1) #4 comdat align 2 {
  %3 = alloca ptr, align 8
  %4 = alloca ptr, align 8
  store ptr %0, ptr %3, align 8, !tbaa !204
  store ptr %1, ptr %4, align 8, !tbaa !200
  %5 = load ptr, ptr %3, align 8
  %6 = getelementptr inbounds nuw %class.vector, ptr %5, i32 0, i32 0
  %7 = load ptr, ptr %6, align 8, !tbaa !206
  %8 = icmp eq ptr %7, null
  br i1 %8, label %19, label %9

9:                                                ; preds = %2
  %10 = getelementptr inbounds nuw %class.vector, ptr %5, i32 0, i32 0
  %11 = load ptr, ptr %10, align 8, !tbaa !206
  %12 = getelementptr inbounds i32, ptr %11, i64 -1
  %13 = load i32, ptr %12, align 4, !tbaa !20
  %14 = getelementptr inbounds nuw %class.vector, ptr %5, i32 0, i32 0
  %15 = load ptr, ptr %14, align 8, !tbaa !206
  %16 = getelementptr inbounds i32, ptr %15, i64 -2
  %17 = load i32, ptr %16, align 4, !tbaa !20
  %18 = icmp eq i32 %13, %17
  br i1 %18, label %19, label %20

19:                                               ; preds = %9, %2
  call void @_ZN6vectorIN3sat15model_converter5entryELb1EjE13expand_vectorEv(ptr noundef nonnull align 8 dereferenceable(8) %5)
  br label %20

20:                                               ; preds = %19, %9
  %21 = getelementptr inbounds nuw %class.vector, ptr %5, i32 0, i32 0
  %22 = load ptr, ptr %21, align 8, !tbaa !206
  %23 = getelementptr inbounds nuw %class.vector, ptr %5, i32 0, i32 0
  %24 = load ptr, ptr %23, align 8, !tbaa !206
  %25 = getelementptr inbounds i32, ptr %24, i64 -1
  %26 = load i32, ptr %25, align 4, !tbaa !20
  %27 = zext i32 %26 to i64
  %28 = getelementptr inbounds nuw %"class.sat::model_converter::entry", ptr %22, i64 %27
  %29 = load ptr, ptr %4, align 8, !tbaa !200
  call void @_ZN3sat15model_converter5entryC2ERKS1_(ptr noundef nonnull align 8 dereferenceable(32) %28, ptr noundef nonnull align 8 dereferenceable(32) %29)
  %30 = getelementptr inbounds nuw %class.vector, ptr %5, i32 0, i32 0
  %31 = load ptr, ptr %30, align 8, !tbaa !206
  %32 = getelementptr inbounds i32, ptr %31, i64 -1
  %33 = load i32, ptr %32, align 4, !tbaa !20
  %34 = add i32 %33, 1
  store i32 %34, ptr %32, align 4, !tbaa !20
  ret ptr %5
}

; Function Attrs: mustprogress nounwind uwtable
define linkonce_odr hidden noundef nonnull align 8 dereferenceable(32) ptr @_ZNK6vectorIN3sat15model_converter5entryELb1EjEixEj(ptr noundef nonnull align 8 dereferenceable(8) %0, i32 noundef %1) #6 comdat align 2 {
  %3 = alloca ptr, align 8
  %4 = alloca i32, align 4
  store ptr %0, ptr %3, align 8, !tbaa !204
  store i32 %1, ptr %4, align 4, !tbaa !20
  %5 = load ptr, ptr %3, align 8
  %6 = getelementptr inbounds nuw %class.vector, ptr %5, i32 0, i32 0
  %7 = load ptr, ptr %6, align 8, !tbaa !206
  %8 = load i32, ptr %4, align 4, !tbaa !20
  %9 = zext i32 %8 to i64
  %10 = getelementptr inbounds nuw %"class.sat::model_converter::entry", ptr %7, i64 %9
  ret ptr %10
}

; Function Attrs: mustprogress nounwind uwtable
define linkonce_odr hidden noundef i32 @_ZNK6vectorIN3sat15model_converter5entryELb1EjE4sizeEv(ptr noundef nonnull align 8 dereferenceable(8) %0) #6 comdat align 2 {
  %2 = alloca i32, align 4
  %3 = alloca ptr, align 8
  store ptr %0, ptr %3, align 8, !tbaa !204
  %4 = load ptr, ptr %3, align 8
  %5 = getelementptr inbounds nuw %class.vector, ptr %4, i32 0, i32 0
  %6 = load ptr, ptr %5, align 8, !tbaa !206
  %7 = icmp eq ptr %6, null
  br i1 %7, label %8, label %9

8:                                                ; preds = %1
  store i32 0, ptr %2, align 4
  br label %14

9:                                                ; preds = %1
  %10 = getelementptr inbounds nuw %class.vector, ptr %4, i32 0, i32 0
  %11 = load ptr, ptr %10, align 8, !tbaa !206
  %12 = getelementptr inbounds i32, ptr %11, i64 -1
  %13 = load i32, ptr %12, align 4, !tbaa !20
  store i32 %13, ptr %2, align 4
  br label %14

14:                                               ; preds = %9, %8
  %15 = load i32, ptr %2, align 4
  ret i32 %15
}

; Function Attrs: mustprogress uwtable
define linkonce_odr hidden void @_ZN6vectorIN3sat15model_converter5entryELb1EjE5resetEv(ptr noundef nonnull align 8 dereferenceable(8) %0) #4 comdat align 2 {
  %2 = alloca ptr, align 8
  store ptr %0, ptr %2, align 8, !tbaa !204
  %3 = load ptr, ptr %2, align 8
  %4 = getelementptr inbounds nuw %class.vector, ptr %3, i32 0, i32 0
  %5 = load ptr, ptr %4, align 8, !tbaa !206
  %6 = icmp ne ptr %5, null
  br i1 %6, label %7, label %11

7:                                                ; preds = %1
  call void @_ZN6vectorIN3sat15model_converter5entryELb1EjE16destroy_elementsEv(ptr noundef nonnull align 8 dereferenceable(8) %3)
  %8 = getelementptr inbounds nuw %class.vector, ptr %3, i32 0, i32 0
  %9 = load ptr, ptr %8, align 8, !tbaa !206
  %10 = getelementptr inbounds i32, ptr %9, i64 -1
  store i32 0, ptr %10, align 4, !tbaa !20
  br label %11

11:                                               ; preds = %7, %1
  ret void
}

; Function Attrs: mustprogress uwtable
define linkonce_odr hidden void @_ZN6vectorIN3sat15model_converter5entryELb1EjE6appendERKS3_(ptr noundef nonnull align 8 dereferenceable(8) %0, ptr noundef nonnull align 8 dereferenceable(8) %1) #4 comdat align 2 {
  %3 = alloca ptr, align 8
  %4 = alloca ptr, align 8
  %5 = alloca i32, align 4
  store ptr %0, ptr %3, align 8, !tbaa !204
  store ptr %1, ptr %4, align 8, !tbaa !204
  %6 = load ptr, ptr %3, align 8
  call void @llvm.lifetime.start.p0(i64 4, ptr %5) #3
  store i32 0, ptr %5, align 4, !tbaa !20
  br label %7

7:                                                ; preds = %18, %2
  %8 = load i32, ptr %5, align 4, !tbaa !20
  %9 = load ptr, ptr %4, align 8, !tbaa !204
  %10 = call noundef i32 @_ZNK6vectorIN3sat15model_converter5entryELb1EjE4sizeEv(ptr noundef nonnull align 8 dereferenceable(8) %9)
  %11 = icmp ult i32 %8, %10
  br i1 %11, label %13, label %12

12:                                               ; preds = %7
  call void @llvm.lifetime.end.p0(i64 4, ptr %5) #3
  br label %21

13:                                               ; preds = %7
  %14 = load ptr, ptr %4, align 8, !tbaa !204
  %15 = load i32, ptr %5, align 4, !tbaa !20
  %16 = call noundef nonnull align 8 dereferenceable(32) ptr @_ZNK6vectorIN3sat15model_converter5entryELb1EjEixEj(ptr noundef nonnull align 8 dereferenceable(8) %14, i32 noundef %15)
  %17 = call noundef nonnull align 8 dereferenceable(8) ptr @_ZN6vectorIN3sat15model_converter5entryELb1EjE9push_backERKS2_(ptr noundef nonnull align 8 dereferenceable(8) %6, ptr noundef nonnull align 8 dereferenceable(32) %16)
  br label %18

18:                                               ; preds = %13
  %19 = load i32, ptr %5, align 4, !tbaa !20
  %20 = add i32 %19, 1
  store i32 %20, ptr %5, align 4, !tbaa !20
  br label %7, !llvm.loop !234

21:                                               ; preds = %12
  ret void
}

; Function Attrs: mustprogress uwtable
define hidden void @_ZN3sat15model_converter5flushERS0_(ptr noundef nonnull align 8 dereferenceable(40) %0, ptr noundef nonnull align 8 dereferenceable(40) %1) #4 align 2 {
  %3 = alloca ptr, align 8
  %4 = alloca ptr, align 8
  store ptr %0, ptr %3, align 8, !tbaa !3
  store ptr %1, ptr %4, align 8, !tbaa !3
  %5 = load ptr, ptr %3, align 8
  %6 = load ptr, ptr %4, align 8, !tbaa !3
  %7 = icmp ne ptr %5, %6
  br i1 %7, label %9, label %8

8:                                                ; preds = %2
  call void @_Z26notify_assertion_violationPKciS0_(ptr noundef @.str.2, i32 noundef 339, ptr noundef @.str.23)
  call void @_Z18invoke_exit_actionj(i32 noundef 114)
  br label %9

9:                                                ; preds = %8, %2
  %10 = getelementptr inbounds nuw %"class.sat::model_converter", ptr %5, i32 0, i32 0
  %11 = load ptr, ptr %4, align 8, !tbaa !3
  %12 = getelementptr inbounds nuw %"class.sat::model_converter", ptr %11, i32 0, i32 0
  call void @_ZN6vectorIN3sat15model_converter5entryELb1EjE6appendERKS3_(ptr noundef nonnull align 8 dereferenceable(8) %10, ptr noundef nonnull align 8 dereferenceable(8) %12)
  %13 = load ptr, ptr %4, align 8, !tbaa !3
  %14 = getelementptr inbounds nuw %"class.sat::model_converter", ptr %13, i32 0, i32 1
  %15 = load i32, ptr %14, align 8, !tbaa !8
  %16 = getelementptr inbounds nuw %"class.sat::model_converter", ptr %5, i32 0, i32 1
  %17 = load i32, ptr %16, align 8, !tbaa !8
  %18 = add i32 %17, %15
  store i32 %18, ptr %16, align 8, !tbaa !8
  %19 = load ptr, ptr %4, align 8, !tbaa !3
  %20 = getelementptr inbounds nuw %"class.sat::model_converter", ptr %19, i32 0, i32 0
  call void @_ZN6vectorIN3sat15model_converter5entryELb1EjE5resetEv(ptr noundef nonnull align 8 dereferenceable(8) %20)
  %21 = load ptr, ptr %4, align 8, !tbaa !3
  %22 = getelementptr inbounds nuw %"class.sat::model_converter", ptr %21, i32 0, i32 1
  store i32 0, ptr %22, align 8, !tbaa !8
  ret void
}