; Function Attrs: mustprogress uwtable
define hidden void @_ZN3sat15model_converter5flushERS0_(ptr noundef nonnull align 8 dereferenceable(40) %0, ptr noundef nonnull align 8 captures(address) dereferenceable(40) %1) local_unnamed_addr #3 align 2 personality ptr @__gxx_personality_v0 {
  %.not = icmp eq ptr %0, %1
  br i1 %.not, label %3, label %4

3:                                                ; preds = %2
  tail call void @_Z26notify_assertion_violationPKciS0_(ptr noundef nonnull @.str.2, i32 noundef 339, ptr noundef nonnull @.str.23)
  tail call void @_Z18invoke_exit_actionj(i32 noundef 114)
  br label %4

4:                                                ; preds = %3, %2
  %5 = load ptr, ptr %1, align 8, !tbaa !3
  %6 = icmp eq ptr %5, null
  br i1 %6, label %_ZN6vectorIN3sat15model_converter5entryELb1EjE6appendERKS3_.exit, label %_ZNK6vectorIN3sat15model_converter5entryELb1EjE4sizeEv.exit.i.thread

_ZNK6vectorIN3sat15model_converter5entryELb1EjE4sizeEv.exit.i.thread: ; preds = %4, %_ZN6vectorIN3sat15model_converter5entryELb1EjE9push_backERKS2_.exit.i
  %7 = phi ptr [ %31, %_ZN6vectorIN3sat15model_converter5entryELb1EjE9push_backERKS2_.exit.i ], [ %5, %4 ]
  %indvars.iv.i8 = phi i64 [ %indvars.iv.next.i, %_ZN6vectorIN3sat15model_converter5entryELb1EjE9push_backERKS2_.exit.i ], [ 0, %4 ]
  %8 = getelementptr inbounds i8, ptr %7, i64 -4
  %9 = load i32, ptr %8, align 4, !tbaa !9
  %10 = zext i32 %9 to i64
  %11 = icmp samesign ult i64 %indvars.iv.i8, %10
  br i1 %11, label %12, label %_ZNK6vectorIN3sat15model_converter5entryELb1EjE4sizeEv.exit.i.i

12:                                               ; preds = %_ZNK6vectorIN3sat15model_converter5entryELb1EjE4sizeEv.exit.i.thread
  %13 = getelementptr inbounds nuw %"class.sat::model_converter::entry", ptr %7, i64 %indvars.iv.i8
  %14 = load ptr, ptr %0, align 8, !tbaa !3
  %15 = icmp eq ptr %14, null
  br i1 %15, label %22, label %16

16:                                               ; preds = %12
  %17 = getelementptr inbounds i8, ptr %14, i64 -4
  %18 = load i32, ptr %17, align 4, !tbaa !9
  %19 = getelementptr inbounds i8, ptr %14, i64 -8
  %20 = load i32, ptr %19, align 4, !tbaa !9
  %21 = icmp eq i32 %18, %20
  br i1 %21, label %22, label %_ZN6vectorIN3sat15model_converter5entryELb1EjE9push_backERKS2_.exit.i

22:                                               ; preds = %16, %12
  tail call void @_ZN6vectorIN3sat15model_converter5entryELb1EjE13expand_vectorEv(ptr noundef nonnull align 8 dereferenceable(8) %0)
  %.pre.i.i = load ptr, ptr %0, align 8, !tbaa !3
  %.phi.trans.insert.i.i = getelementptr inbounds i8, ptr %.pre.i.i, i64 -4
  %.pre2.i.i = load i32, ptr %.phi.trans.insert.i.i, align 4, !tbaa !9
  br label %_ZN6vectorIN3sat15model_converter5entryELb1EjE9push_backERKS2_.exit.i

_ZN6vectorIN3sat15model_converter5entryELb1EjE9push_backERKS2_.exit.i: ; preds = %22, %16
  %23 = phi i32 [ %.pre2.i.i, %22 ], [ %18, %16 ]
  %24 = phi ptr [ %.pre.i.i, %22 ], [ %14, %16 ]
  %25 = zext i32 %23 to i64
  %26 = getelementptr inbounds nuw %"class.sat::model_converter::entry", ptr %24, i64 %25
  tail call void @_ZN3sat15model_converter5entryC2ERKS1_(ptr noundef nonnull align 8 dereferenceable(32) %26, ptr noundef nonnull align 8 dereferenceable(32) %13)
  %27 = load ptr, ptr %0, align 8, !tbaa !3
  %28 = getelementptr inbounds i8, ptr %27, i64 -4
  %29 = load i32, ptr %28, align 4, !tbaa !9
  %30 = add i32 %29, 1
  store i32 %30, ptr %28, align 4, !tbaa !9
  %indvars.iv.next.i = add nuw nsw i64 %indvars.iv.i8, 1
  %31 = load ptr, ptr %1, align 8, !tbaa !3
  %32 = icmp eq ptr %31, null
  br i1 %32, label %_ZN6vectorIN3sat15model_converter5entryELb1EjE6appendERKS3_.exit, label %_ZNK6vectorIN3sat15model_converter5entryELb1EjE4sizeEv.exit.i.thread, !llvm.loop !16

_ZN6vectorIN3sat15model_converter5entryELb1EjE6appendERKS3_.exit: ; preds = %_ZN6vectorIN3sat15model_converter5entryELb1EjE9push_backERKS2_.exit.i, %4
  %33 = getelementptr inbounds nuw i8, ptr %1, i64 8
  %34 = load i32, ptr %33, align 8, !tbaa !17
  %35 = getelementptr inbounds nuw i8, ptr %0, i64 8
  %36 = load i32, ptr %35, align 8, !tbaa !17
  %37 = add i32 %36, %34
  store i32 %37, ptr %35, align 8, !tbaa !17
  br label %_ZN6vectorIN3sat15model_converter5entryELb1EjE5resetEv.exit

_ZNK6vectorIN3sat15model_converter5entryELb1EjE4sizeEv.exit.i.i: ; preds = %_ZNK6vectorIN3sat15model_converter5entryELb1EjE4sizeEv.exit.i.thread
  %38 = getelementptr inbounds i8, ptr %7, i64 -4
  %39 = getelementptr inbounds nuw i8, ptr %1, i64 8
  %40 = load i32, ptr %39, align 8, !tbaa !17
  %41 = getelementptr inbounds nuw i8, ptr %0, i64 8
  %42 = load i32, ptr %41, align 8, !tbaa !17
  %43 = add i32 %42, %40
  store i32 %43, ptr %41, align 8, !tbaa !17
  %44 = load i32, ptr %38, align 4, !tbaa !9
  %.not7.i.i.i.i.i = icmp eq i32 %44, 0
  br i1 %.not7.i.i.i.i.i, label %_ZN6vectorIN3sat15model_converter5entryELb1EjE16destroy_elementsEv.exit.i, label %.lr.ph.i.i.i.i.i

.lr.ph.i.i.i.i.i:                                 ; preds = %_ZNK6vectorIN3sat15model_converter5entryELb1EjE4sizeEv.exit.i.i, %_ZSt8_DestroyIN3sat15model_converter5entryEEvPT_.exit.i.i.i.i.i
  %.09.i.i.i.i.i = phi i32 [ %61, %_ZSt8_DestroyIN3sat15model_converter5entryEEvPT_.exit.i.i.i.i.i ], [ %44, %_ZNK6vectorIN3sat15model_converter5entryELb1EjE4sizeEv.exit.i.i ]
  %.048.i.i.i.i.i = phi ptr [ %60, %_ZSt8_DestroyIN3sat15model_converter5entryEEvPT_.exit.i.i.i.i.i ], [ %7, %_ZNK6vectorIN3sat15model_converter5entryELb1EjE4sizeEv.exit.i.i ]
  %45 = getelementptr inbounds nuw i8, ptr %.048.i.i.i.i.i, i64 24
  tail call void @_ZN15ref_vector_coreIN3sat15model_converter10elim_stackE21ref_unmanaged_wrapperIS2_EED2Ev(ptr noundef nonnull align 8 dereferenceable(8) %45) #22
  %46 = getelementptr inbounds nuw i8, ptr %.048.i.i.i.i.i, i64 16
  %47 = load ptr, ptr %46, align 8, !tbaa !11
  %.not.i.i.i.i.i.i.i.i.i.i = icmp eq ptr %47, null
  br i1 %.not.i.i.i.i.i.i.i.i.i.i, label %_ZN6vectorIN3sat7literalELb0EjED2Ev.exit.i.i.i.i.i.i.i.i, label %48

48:                                               ; preds = %.lr.ph.i.i.i.i.i
  %49 = getelementptr inbounds i8, ptr %47, i64 -8
  invoke void @_ZN6memory10deallocateEPv(ptr noundef nonnull %49)
          to label %_ZN6vectorIN3sat7literalELb0EjED2Ev.exit.i.i.i.i.i.i.i.i unwind label %50

50:                                               ; preds = %48
  %51 = landingpad { ptr, i32 }
          catch ptr null
  %52 = extractvalue { ptr, i32 } %51, 0
  tail call void @__clang_call_terminate(ptr %52) #23
  unreachable

_ZN6vectorIN3sat7literalELb0EjED2Ev.exit.i.i.i.i.i.i.i.i: ; preds = %48, %.lr.ph.i.i.i.i.i
  %53 = getelementptr inbounds nuw i8, ptr %.048.i.i.i.i.i, i64 8
  %54 = load ptr, ptr %53, align 8, !tbaa !11
  %.not.i.i1.i.i.i.i.i.i.i.i = icmp eq ptr %54, null
  br i1 %.not.i.i1.i.i.i.i.i.i.i.i, label %_ZSt8_DestroyIN3sat15model_converter5entryEEvPT_.exit.i.i.i.i.i, label %55

55:                                               ; preds = %_ZN6vectorIN3sat7literalELb0EjED2Ev.exit.i.i.i.i.i.i.i.i
  %56 = getelementptr inbounds i8, ptr %54, i64 -8
  invoke void @_ZN6memory10deallocateEPv(ptr noundef nonnull %56)
          to label %_ZSt8_DestroyIN3sat15model_converter5entryEEvPT_.exit.i.i.i.i.i unwind label %57

57:                                               ; preds = %55
  %58 = landingpad { ptr, i32 }
          catch ptr null
  %59 = extractvalue { ptr, i32 } %58, 0
  tail call void @__clang_call_terminate(ptr %59) #23
  unreachable

_ZSt8_DestroyIN3sat15model_converter5entryEEvPT_.exit.i.i.i.i.i: ; preds = %55, %_ZN6vectorIN3sat7literalELb0EjED2Ev.exit.i.i.i.i.i.i.i.i
  %60 = getelementptr inbounds nuw i8, ptr %.048.i.i.i.i.i, i64 32
  %61 = add i32 %.09.i.i.i.i.i, -1
  %.not.i.i.i.i.i = icmp eq i32 %61, 0
  br i1 %.not.i.i.i.i.i, label %_ZN6vectorIN3sat15model_converter5entryELb1EjE16destroy_elementsEv.exit.loopexit.i, label %.lr.ph.i.i.i.i.i, !llvm.loop !14

_ZN6vectorIN3sat15model_converter5entryELb1EjE16destroy_elementsEv.exit.loopexit.i: ; preds = %_ZSt8_DestroyIN3sat15model_converter5entryEEvPT_.exit.i.i.i.i.i
  %.pre.i = load ptr, ptr %1, align 8, !tbaa !3
  br label %_ZN6vectorIN3sat15model_converter5entryELb1EjE16destroy_elementsEv.exit.i

_ZN6vectorIN3sat15model_converter5entryELb1EjE16destroy_elementsEv.exit.i: ; preds = %_ZN6vectorIN3sat15model_converter5entryELb1EjE16destroy_elementsEv.exit.loopexit.i, %_ZNK6vectorIN3sat15model_converter5entryELb1EjE4sizeEv.exit.i.i
  %62 = phi ptr [ %.pre.i, %_ZN6vectorIN3sat15model_converter5entryELb1EjE16destroy_elementsEv.exit.loopexit.i ], [ %7, %_ZNK6vectorIN3sat15model_converter5entryELb1EjE4sizeEv.exit.i.i ]
  %63 = getelementptr inbounds i8, ptr %62, i64 -4
  store i32 0, ptr %63, align 4, !tbaa !9
  br label %_ZN6vectorIN3sat15model_converter5entryELb1EjE5resetEv.exit

_ZN6vectorIN3sat15model_converter5entryELb1EjE5resetEv.exit: ; preds = %_ZN6vectorIN3sat15model_converter5entryELb1EjE6appendERKS3_.exit, %_ZN6vectorIN3sat15model_converter5entryELb1EjE16destroy_elementsEv.exit.i
  %64 = phi ptr [ %33, %_ZN6vectorIN3sat15model_converter5entryELb1EjE6appendERKS3_.exit ], [ %39, %_ZN6vectorIN3sat15model_converter5entryELb1EjE16destroy_elementsEv.exit.i ]
  store i32 0, ptr %64, align 8, !tbaa !17
  ret void
}